; Function Attrs: mustprogress nofree norecurse nosync nounwind willreturn memory(argmem: read) uwtable
define dso_local noundef i32 @_ZNK5clang12HeaderSearch12searchDirIdxERKNS_15DirectoryLookupE(ptr nocapture noundef nonnull readonly align 8 dereferenceable(2192) %0, ptr noundef nonnull align 8 dereferenceable(9) %1) local_unnamed_addr #7 align 2 {
  %3 = getelementptr inbounds nuw i8, ptr %0, i64 56
  %4 = load ptr, ptr %3, align 8
  %5 = ptrtoint ptr %1 to i64
  %6 = ptrtoint ptr %4 to i64
  %7 = sub i64 %5, %6
  %8 = lshr exact i64 %7, 4
  %9 = trunc i64 %8 to i32
  ret i32 %9
}